; ModuleID = '15/881.c'
source_filename = "15/881.c"
target datalayout = "e-m:e-p270:32:32-p271:32:32-p272:64:64-i64:64-f80:128-n8:16:32:64-S128"
target triple = "x86_64-pc-linux-gnu"

@.str = private unnamed_addr constant [3 x i8] c"%d\00", align 1

; Function Attrs: noinline nounwind uwtable
define dso_local i32 @main() #0 {
  %1 = alloca i32, align 4
  %2 = alloca i32, align 4
  %3 = alloca [100 x [100 x i32]], align 16
  %4 = alloca i32, align 4
  %5 = alloca i32, align 4
  %6 = alloca i32, align 4
  %7 = alloca i32, align 4
  %8 = alloca i32, align 4
  %9 = alloca i32, align 4
  %10 = alloca i32, align 4
  %11 = alloca i32, align 4
  %12 = alloca i32, align 4
  %13 = alloca i32, align 4
  %14 = alloca i32, align 4
  store i32 0, i32* %1, align 4
  %15 = call i32 (i8*, ...) @__isoc99_scanf(i8* getelementptr inbounds ([3 x i8], [3 x i8]* @.str, i64 0, i64 0), i32* %2)
  store i32 1, i32* %8, align 4
  br label %16

16:                                               ; preds = %37, %0
  %17 = load i32, i32* %8, align 4
  %18 = load i32, i32* %2, align 4
  %19 = icmp sle i32 %17, %18
  br i1 %19, label %20, label %40

20:                                               ; preds = %16
  store i32 1, i32* %9, align 4
  br label %21

21:                                               ; preds = %33, %20
  %22 = load i32, i32* %9, align 4
  %23 = load i32, i32* %2, align 4
  %24 = icmp sle i32 %22, %23
  br i1 %24, label %25, label %36

25:                                               ; preds = %21
  %26 = load i32, i32* %8, align 4
  %27 = sext i32 %26 to i64
  %28 = getelementptr inbounds [100 x [100 x i32]], [100 x [100 x i32]]* %3, i64 0, i64 %27
  %29 = load i32, i32* %9, align 4
  %30 = sext i32 %29 to i64
  %31 = getelementptr inbounds [100 x i32], [100 x i32]* %28, i64 0, i64 %30
  %32 = call i32 (i8*, ...) @__isoc99_scanf(i8* getelementptr inbounds ([3 x i8], [3 x i8]* @.str, i64 0, i64 0), i32* %31)
  br label %33

33:                                               ; preds = %25
  %34 = load i32, i32* %9, align 4
  %35 = add nsw i32 %34, 1
  store i32 %35, i32* %9, align 4
  br label %21

36:                                               ; preds = %21
  br label %37

37:                                               ; preds = %36
  %38 = load i32, i32* %8, align 4
  %39 = add nsw i32 %38, 1
  store i32 %39, i32* %8, align 4
  br label %16

40:                                               ; preds = %16
  store i32 1, i32* %10, align 4
  br label %41

41:                                               ; preds = %67, %40
  %42 = load i32, i32* %10, align 4
  %43 = load i32, i32* %2, align 4
  %44 = icmp sle i32 %42, %43
  br i1 %44, label %45, label %70

45:                                               ; preds = %41
  store i32 1, i32* %11, align 4
  br label %46

46:                                               ; preds = %63, %45
  %47 = load i32, i32* %11, align 4
  %48 = load i32, i32* %2, align 4
  %49 = icmp sle i32 %47, %48
  br i1 %49, label %50, label %66

50:                                               ; preds = %46
  %51 = load i32, i32* %10, align 4
  %52 = sext i32 %51 to i64
  %53 = getelementptr inbounds [100 x [100 x i32]], [100 x [100 x i32]]* %3, i64 0, i64 %52
  %54 = load i32, i32* %11, align 4
  %55 = sext i32 %54 to i64
  %56 = getelementptr inbounds [100 x i32], [100 x i32]* %53, i64 0, i64 %55
  %57 = load i32, i32* %56, align 4
  %58 = icmp eq i32 %57, 0
  br i1 %58, label %59, label %62

59:                                               ; preds = %50
  %60 = load i32, i32* %10, align 4
  store i32 %60, i32* %4, align 4
  %61 = load i32, i32* %11, align 4
  store i32 %61, i32* %5, align 4
  br label %62

62:                                               ; preds = %59, %50
  br label %63

63:                                               ; preds = %62
  %64 = load i32, i32* %11, align 4
  %65 = add nsw i32 %64, 1
  store i32 %65, i32* %11, align 4
  br label %46

66:                                               ; preds = %46
  br label %67

67:                                               ; preds = %66
  %68 = load i32, i32* %10, align 4
  %69 = add nsw i32 %68, 1
  store i32 %69, i32* %10, align 4
  br label %41

70:                                               ; preds = %41
  %71 = load i32, i32* %2, align 4
  store i32 %71, i32* %12, align 4
  br label %72

72:                                               ; preds = %97, %70
  %73 = load i32, i32* %12, align 4
  %74 = icmp sgt i32 %73, 0
  br i1 %74, label %75, label %100

75:                                               ; preds = %72
  %76 = load i32, i32* %2, align 4
  store i32 %76, i32* %13, align 4
  br label %77

77:                                               ; preds = %93, %75
  %78 = load i32, i32* %13, align 4
  %79 = icmp sgt i32 %78, 0
  br i1 %79, label %80, label %96

80:                                               ; preds = %77
  %81 = load i32, i32* %12, align 4
  %82 = sext i32 %81 to i64
  %83 = getelementptr inbounds [100 x [100 x i32]], [100 x [100 x i32]]* %3, i64 0, i64 %82
  %84 = load i32, i32* %13, align 4
  %85 = sext i32 %84 to i64
  %86 = getelementptr inbounds [100 x i32], [100 x i32]* %83, i64 0, i64 %85
  %87 = load i32, i32* %86, align 4
  %88 = icmp eq i32 %87, 0
  br i1 %88, label %89, label %92

89:                                               ; preds = %80
  %90 = load i32, i32* %12, align 4
  store i32 %90, i32* %6, align 4
  %91 = load i32, i32* %13, align 4
  store i32 %91, i32* %7, align 4
  br label %92

92:                                               ; preds = %89, %80
  br label %93

93:                                               ; preds = %92
  %94 = load i32, i32* %13, align 4
  %95 = add nsw i32 %94, -1
  store i32 %95, i32* %13, align 4
  br label %77

96:                                               ; preds = %77
  br label %97

97:                                               ; preds = %96
  %98 = load i32, i32* %12, align 4
  %99 = add nsw i32 %98, -1
  store i32 %99, i32* %12, align 4
  br label %72

100:                                              ; preds = %72
  %101 = load i32, i32* %6, align 4
  %102 = load i32, i32* %4, align 4
  %103 = sub nsw i32 %101, %102
  %104 = add nsw i32 %103, 1
  %105 = load i32, i32* %7, align 4
  %106 = load i32, i32* %5, align 4
  %107 = sub nsw i32 %105, %106
  %108 = add nsw i32 %107, 1
  %109 = mul nsw i32 %104, %108
  store i32 %109, i32* %14, align 4
  %110 = load i32, i32* %14, align 4
  %111 = call i32 (i8*, ...) @printf(i8* getelementptr inbounds ([3 x i8], [3 x i8]* @.str, i64 0, i64 0), i32 %110)
  ret i32 0
}

declare dso_local i32 @__isoc99_scanf(i8*, ...) #1

declare dso_local i32 @printf(i8*, ...) #1


!llvm.module.flags = !{!0}
!llvm.ident = !{!1}

!0 = !{i32 1, !"wchar_size", i32 4}
!1 = !{!"clang version 10.0.0-4ubuntu1 "}
